(lp0
S'poi'
p1
aS'salary'
p2
aS'bonus'
p3
aS'total_net_worth'
p4
aS'total_stock_value'
p5
aS'exercised_stock_options'
p6
aS'fraction_to_poi_email'
p7
aS'deferred_income'
p8
aS'restricted_stock'
p9
aS'long_term_incentive'
p10
a.